; Function Attrs: mustprogress uwtable
define hidden void @hb_font_set_face(ptr noundef %0, ptr noundef %1) local_unnamed_addr #1 {
  %3 = getelementptr inbounds i8, ptr %0, i64 4
  %4 = load atomic i32, ptr %3 monotonic, align 4
  %.not.i = icmp eq i32 %4, 0
  br i1 %.not.i, label %18, label %5

5:                                                ; preds = %2
  %6 = getelementptr inbounds i8, ptr %0, i64 32
  %7 = load ptr, ptr %6, align 8
  %8 = icmp eq ptr %7, %1
  br i1 %8, label %18, label %9

9:                                                ; preds = %5
  %10 = getelementptr inbounds i8, ptr %0, i64 16
  %11 = load i32, ptr %10, align 8
  %12 = add i32 %11, 1
  store i32 %12, ptr %10, align 8
  %.not = icmp eq ptr %1, null
  br i1 %.not, label %13, label %15

13:                                               ; preds = %9
  %14 = tail call ptr @hb_face_get_empty()
  %.pre = load ptr, ptr %6, align 8
  br label %15

15:                                               ; preds = %13, %9
  %16 = phi ptr [ %7, %9 ], [ %.pre, %13 ]
  %.0 = phi ptr [ %1, %9 ], [ %14, %13 ]
  tail call void @hb_face_make_immutable(ptr noundef %.0)
  %17 = tail call ptr @hb_face_reference(ptr noundef %.0)
  store ptr %17, ptr %6, align 8
  tail call void @_ZN9hb_font_t13mults_changedEv(ptr noundef nonnull align 8 dereferenceable(192) %0)
  tail call void @hb_face_destroy(ptr noundef %16)
  br label %18

18:                                               ; preds = %5, %2, %15
  ret void
}